target datalayout = "e-m:e-p270:32:32-p271:32:32-p272:64:64-i64:64-i128:128-f80:128-n8:16:32:64-S128"
target triple = "x86_64-pc-linux-gnu"

%struct.H5C_class_t = type { i32, ptr, i32, i32, ptr, ptr, ptr, ptr, ptr, ptr, ptr, ptr, ptr, ptr }
%struct.H5B_t = type { %struct.H5C_cache_entry_t, ptr, i32, i32, i64, i64, ptr, ptr }
%struct.H5C_cache_entry_t = type { ptr, i64, i64, ptr, i8, ptr, i8, i8, i8, i8, i32, i8, i8, i8, i8, i8, i32, ptr, i32, i32, i32, i32, i32, i8, i8, ptr, ptr, ptr, ptr, ptr, ptr, i8, i32, i8, i64, ptr, i64, i64, i32, i8, i32, i32, i8, ptr, ptr, ptr }
%struct.H5B_class_t = type { i32, i64, ptr, ptr, ptr, ptr, ptr, ptr, i8, i8, i32, ptr, ptr, ptr, ptr }
%struct.H5UC_t = type { ptr, i64, ptr }
%struct.H5B_shared_t = type { ptr, i32, i64, i64, i64, i64, i64, ptr, ptr, ptr }
%struct.H5B_cache_ud_t = type { ptr, ptr, i32, ptr }

@H5B_init_g = global i8 0, align 1
@H5_libterm_g = external global i8, align 1
@.str.3 = private unnamed_addr constant [97 x i8] c"generated/home/dtcxzyw/WorkSpace/Projects/compilers/llvm-opt-benchmark/bench/hdf5/hdf5/src/H5B.c\00", align 1
@H5E_BTREE_g = external global i64, align 8
@H5E_CANTGET_g = external global i64, align 8
@H5AC_BT = external constant [1 x %struct.H5C_class_t], align 16
@.str.9 = private unnamed_addr constant [49 x i8] c"can't retrieve B-tree's shared ref. count object\00", align 1
@H5E_CANTPROTECT_g = external global i64, align 8
@.str.10 = private unnamed_addr constant [27 x i8] c"unable to load B-tree node\00", align 1
@H5E_CANTUNPROTECT_g = external global i64, align 8
@H5E_BADITER_g = external global i64, align 8
@.str.24 = private unnamed_addr constant [24 x i8] c"B-tree iteration failed\00", align 1
@.str.34 = private unnamed_addr constant [30 x i8] c"unable to release B-tree node\00", align 1
@__func__.H5B__iterate_helper = private unnamed_addr constant [20 x i8] c"H5B__iterate_helper\00", align 1

; Function Attrs: nounwind uwtable
define internal i32 @H5B__iterate_helper(ptr noundef %0, ptr noundef %1, i64 noundef %2, i32 noundef %3, ptr noundef %4, ptr noundef %5) #0 {
  %7 = alloca ptr, align 8
  %8 = alloca ptr, align 8
  %9 = alloca i64, align 8
  %10 = alloca i32, align 4
  %11 = alloca ptr, align 8
  %12 = alloca ptr, align 8
  %13 = alloca ptr, align 8
  %14 = alloca ptr, align 8
  %15 = alloca ptr, align 8
  %16 = alloca %struct.H5B_cache_ud_t, align 8
  %17 = alloca i32, align 4
  %18 = alloca i32, align 4
  %19 = alloca i8, align 1
  store ptr %0, ptr %7, align 8, !tbaa !3
  store ptr %1, ptr %8, align 8, !tbaa !8
  store i64 %2, ptr %9, align 8, !tbaa !23
  store i32 %3, ptr %10, align 4, !tbaa !17
  store ptr %4, ptr %11, align 8, !tbaa !10
  store ptr %5, ptr %12, align 8, !tbaa !10
  call void @llvm.lifetime.start.p0(i64 8, ptr %13) #6
  store ptr null, ptr %13, align 8, !tbaa !13
  call void @llvm.lifetime.start.p0(i64 8, ptr %14) #6
  call void @llvm.lifetime.start.p0(i64 8, ptr %15) #6
  call void @llvm.lifetime.start.p0(i64 32, ptr %16) #6
  call void @llvm.lifetime.start.p0(i64 4, ptr %17) #6
  call void @llvm.lifetime.start.p0(i64 4, ptr %18) #6
  store i32 0, ptr %18, align 4, !tbaa !17
  call void @llvm.lifetime.start.p0(i64 1, ptr %19) #6
  store i8 0, ptr %19, align 1, !tbaa !19
  %20 = load i8, ptr @H5B_init_g, align 1, !tbaa !19, !range !21, !noundef !22
  %21 = trunc i8 %20 to i1
  br i1 %21, label %26, label %22

22:                                               ; preds = %6
  %23 = load i8, ptr @H5_libterm_g, align 1, !tbaa !19, !range !21, !noundef !22
  %24 = trunc i8 %23 to i1
  %25 = xor i1 %24, true
  br label %26

26:                                               ; preds = %22, %6
  %27 = phi i1 [ true, %6 ], [ %25, %22 ]
  %28 = xor i1 %27, true
  %29 = xor i1 %28, true
  %30 = zext i1 %29 to i32
  %31 = sext i32 %30 to i64
  %32 = call i64 @llvm.expect.i64(i64 %31, i64 1)
  %33 = icmp ne i64 %32, 0
  br i1 %33, label %34, label %206

34:                                               ; preds = %26
  %35 = load ptr, ptr %8, align 8, !tbaa !8
  %36 = getelementptr inbounds nuw %struct.H5B_class_t, ptr %35, i32 0, i32 2
  %37 = load ptr, ptr %36, align 8, !tbaa !38
  %38 = load ptr, ptr %7, align 8, !tbaa !3
  %39 = load ptr, ptr %12, align 8, !tbaa !10
  %40 = call ptr %37(ptr noundef %38, ptr noundef %39)
  store ptr %40, ptr %14, align 8, !tbaa !52
  %41 = icmp eq ptr null, %40
  br i1 %41, label %42, label %61

42:                                               ; preds = %34
  br label %43

43:                                               ; preds = %42
  br label %44

44:                                               ; preds = %43
  br label %45

45:                                               ; preds = %44
  %46 = load i64, ptr @H5E_BTREE_g, align 8, !tbaa !23
  %47 = load i64, ptr @H5E_CANTGET_g, align 8, !tbaa !23
  %48 = call i32 (ptr, ptr, i32, i64, i64, ptr, ...) @H5E_printf_stack(ptr noundef @.str.3, ptr noundef @__func__.H5B__iterate_helper, i32 noundef 1078, i64 noundef %46, i64 noundef %47, ptr noundef @.str.9)
  br label %49

49:                                               ; preds = %45
  br label %50

50:                                               ; preds = %49
  store i8 1, ptr %19, align 1, !tbaa !19
  %51 = load i8, ptr %19, align 1, !tbaa !19, !range !21, !noundef !22
  %52 = trunc i8 %51 to i1
  %53 = zext i1 %52 to i8
  store i8 %53, ptr %19, align 1, !tbaa !19
  br label %54

54:                                               ; preds = %50
  br label %55

55:                                               ; preds = %54
  br label %56

56:                                               ; preds = %55
  store i32 -1, ptr %18, align 4, !tbaa !17
  br label %180

57:                                               ; No predecessors!
  br label %58

58:                                               ; preds = %57
  br label %59

59:                                               ; preds = %58
  br label %60

60:                                               ; preds = %59
  br label %61

61:                                               ; preds = %60, %34
  %62 = load ptr, ptr %14, align 8, !tbaa !52
  %63 = getelementptr inbounds nuw %struct.H5UC_t, ptr %62, i32 0, i32 0
  %64 = load ptr, ptr %63, align 8, !tbaa !43
  store ptr %64, ptr %15, align 8, !tbaa !15
  %65 = load ptr, ptr %7, align 8, !tbaa !3
  %66 = getelementptr inbounds nuw %struct.H5B_cache_ud_t, ptr %16, i32 0, i32 0
  store ptr %65, ptr %66, align 8, !tbaa !53
  %67 = load ptr, ptr %8, align 8, !tbaa !8
  %68 = getelementptr inbounds nuw %struct.H5B_cache_ud_t, ptr %16, i32 0, i32 1
  store ptr %67, ptr %68, align 8, !tbaa !55
  %69 = load ptr, ptr %14, align 8, !tbaa !52
  %70 = getelementptr inbounds nuw %struct.H5B_cache_ud_t, ptr %16, i32 0, i32 3
  store ptr %69, ptr %70, align 8, !tbaa !56
  %71 = load i32, ptr %10, align 4, !tbaa !17
  %72 = getelementptr inbounds nuw %struct.H5B_cache_ud_t, ptr %16, i32 0, i32 2
  store i32 %71, ptr %72, align 8, !tbaa !57
  %73 = load ptr, ptr %7, align 8, !tbaa !3
  %74 = load i64, ptr %9, align 8, !tbaa !23
  %75 = call ptr @H5AC_protect(ptr noundef %73, ptr noundef @H5AC_BT, i64 noundef %74, ptr noundef %16, i32 noundef 128)
  store ptr %75, ptr %13, align 8, !tbaa !13
  %76 = icmp eq ptr null, %75
  br i1 %76, label %77, label %96

77:                                               ; preds = %61
  br label %78

78:                                               ; preds = %77
  br label %79

79:                                               ; preds = %78
  br label %80

80:                                               ; preds = %79
  %81 = load i64, ptr @H5E_BTREE_g, align 8, !tbaa !23
  %82 = load i64, ptr @H5E_CANTPROTECT_g, align 8, !tbaa !23
  %83 = call i32 (ptr, ptr, i32, i64, i64, ptr, ...) @H5E_printf_stack(ptr noundef @.str.3, ptr noundef @__func__.H5B__iterate_helper, i32 noundef 1088, i64 noundef %81, i64 noundef %82, ptr noundef @.str.10)
  br label %84

84:                                               ; preds = %80
  br label %85

85:                                               ; preds = %84
  store i8 1, ptr %19, align 1, !tbaa !19
  %86 = load i8, ptr %19, align 1, !tbaa !19, !range !21, !noundef !22
  %87 = trunc i8 %86 to i1
  %88 = zext i1 %87 to i8
  store i8 %88, ptr %19, align 1, !tbaa !19
  br label %89

89:                                               ; preds = %85
  br label %90

90:                                               ; preds = %89
  br label %91

91:                                               ; preds = %90
  store i32 -1, ptr %18, align 4, !tbaa !17
  br label %180

92:                                               ; No predecessors!
  br label %93

93:                                               ; preds = %92
  br label %94

94:                                               ; preds = %93
  br label %95

95:                                               ; preds = %94
  br label %96

96:                                               ; preds = %95, %61
  store i32 0, ptr %17, align 4, !tbaa !17
  br label %97

97:                                               ; preds = %176, %96
  %98 = load i32, ptr %17, align 4, !tbaa !17
  %99 = load ptr, ptr %13, align 8, !tbaa !13
  %100 = getelementptr inbounds nuw %struct.H5B_t, ptr %99, i32 0, i32 3
  %101 = load i32, ptr %100, align 4, !tbaa !37
  %102 = icmp ult i32 %98, %101
  br i1 %102, label %103, label %106

103:                                              ; preds = %97
  %104 = load i32, ptr %18, align 4, !tbaa !17
  %105 = icmp eq i32 %104, 0
  br label %106

106:                                              ; preds = %103, %97
  %107 = phi i1 [ false, %97 ], [ %105, %103 ]
  br i1 %107, label %108, label %179

108:                                              ; preds = %106
  %109 = load ptr, ptr %13, align 8, !tbaa !13
  %110 = getelementptr inbounds nuw %struct.H5B_t, ptr %109, i32 0, i32 2
  %111 = load i32, ptr %110, align 8, !tbaa !25
  %112 = icmp ugt i32 %111, 0
  br i1 %112, label %113, label %130

113:                                              ; preds = %108
  %114 = load ptr, ptr %7, align 8, !tbaa !3
  %115 = load ptr, ptr %8, align 8, !tbaa !8
  %116 = load ptr, ptr %13, align 8, !tbaa !13
  %117 = getelementptr inbounds nuw %struct.H5B_t, ptr %116, i32 0, i32 7
  %118 = load ptr, ptr %117, align 8, !tbaa !48
  %119 = load i32, ptr %17, align 4, !tbaa !17
  %120 = zext i32 %119 to i64
  %121 = getelementptr inbounds nuw i64, ptr %118, i64 %120
  %122 = load i64, ptr %121, align 8, !tbaa !23
  %123 = load ptr, ptr %13, align 8, !tbaa !13
  %124 = getelementptr inbounds nuw %struct.H5B_t, ptr %123, i32 0, i32 2
  %125 = load i32, ptr %124, align 8, !tbaa !25
  %126 = sub i32 %125, 1
  %127 = load ptr, ptr %11, align 8, !tbaa !10
  %128 = load ptr, ptr %12, align 8, !tbaa !10
  %129 = call i32 @H5B__iterate_helper(ptr noundef %114, ptr noundef %115, i64 noundef %122, i32 noundef %126, ptr noundef %127, ptr noundef %128)
  store i32 %129, ptr %18, align 4, !tbaa !17
  br label %165

130:                                              ; preds = %108
  %131 = load ptr, ptr %11, align 8, !tbaa !10
  %132 = load ptr, ptr %7, align 8, !tbaa !3
  %133 = load ptr, ptr %13, align 8, !tbaa !13
  %134 = getelementptr inbounds nuw %struct.H5B_t, ptr %133, i32 0, i32 6
  %135 = load ptr, ptr %134, align 8, !tbaa !46
  %136 = load ptr, ptr %15, align 8, !tbaa !15
  %137 = getelementptr inbounds nuw %struct.H5B_shared_t, ptr %136, i32 0, i32 8
  %138 = load ptr, ptr %137, align 8, !tbaa !59
  %139 = load i32, ptr %17, align 4, !tbaa !17
  %140 = zext i32 %139 to i64
  %141 = getelementptr inbounds nuw i64, ptr %138, i64 %140
  %142 = load i64, ptr %141, align 8, !tbaa !23
  %143 = getelementptr inbounds nuw i8, ptr %135, i64 %142
  %144 = load ptr, ptr %13, align 8, !tbaa !13
  %145 = getelementptr inbounds nuw %struct.H5B_t, ptr %144, i32 0, i32 7
  %146 = load ptr, ptr %145, align 8, !tbaa !48
  %147 = load i32, ptr %17, align 4, !tbaa !17
  %148 = zext i32 %147 to i64
  %149 = getelementptr inbounds nuw i64, ptr %146, i64 %148
  %150 = load i64, ptr %149, align 8, !tbaa !23
  %151 = load ptr, ptr %13, align 8, !tbaa !13
  %152 = getelementptr inbounds nuw %struct.H5B_t, ptr %151, i32 0, i32 6
  %153 = load ptr, ptr %152, align 8, !tbaa !46
  %154 = load ptr, ptr %15, align 8, !tbaa !15
  %155 = getelementptr inbounds nuw %struct.H5B_shared_t, ptr %154, i32 0, i32 8
  %156 = load ptr, ptr %155, align 8, !tbaa !59
  %157 = load i32, ptr %17, align 4, !tbaa !17
  %158 = add i32 %157, 1
  %159 = zext i32 %158 to i64
  %160 = getelementptr inbounds nuw i64, ptr %156, i64 %159
  %161 = load i64, ptr %160, align 8, !tbaa !23
  %162 = getelementptr inbounds nuw i8, ptr %153, i64 %161
  %163 = load ptr, ptr %12, align 8, !tbaa !10
  %164 = call i32 %131(ptr noundef %132, ptr noundef %143, i64 noundef %150, ptr noundef %162, ptr noundef %163)
  store i32 %164, ptr %18, align 4, !tbaa !17
  br label %165

165:                                              ; preds = %130, %113
  %166 = load i32, ptr %18, align 4, !tbaa !17
  %167 = icmp slt i32 %166, 0
  br i1 %167, label %168, label %175

168:                                              ; preds = %165
  br label %169

169:                                              ; preds = %168
  %170 = load i64, ptr @H5E_BTREE_g, align 8, !tbaa !23
  %171 = load i64, ptr @H5E_BADITER_g, align 8, !tbaa !23
  %172 = call i32 (ptr, ptr, i32, i64, i64, ptr, ...) @H5E_printf_stack(ptr noundef @.str.3, ptr noundef @__func__.H5B__iterate_helper, i32 noundef 1097, i64 noundef %170, i64 noundef %171, ptr noundef @.str.24)
  br label %173

173:                                              ; preds = %169
  br label %174

174:                                              ; preds = %173
  br label %175

175:                                              ; preds = %174, %165
  br label %176

176:                                              ; preds = %175
  %177 = load i32, ptr %17, align 4, !tbaa !17
  %178 = add i32 %177, 1
  store i32 %178, ptr %17, align 4, !tbaa !17
  br label %97, !llvm.loop !79

179:                                              ; preds = %106
  br label %180

180:                                              ; preds = %179, %91, %56
  %181 = load ptr, ptr %13, align 8, !tbaa !13
  %182 = icmp ne ptr %181, null
  br i1 %182, label %183, label %205

183:                                              ; preds = %180
  %184 = load ptr, ptr %7, align 8, !tbaa !3
  %185 = load i64, ptr %9, align 8, !tbaa !23
  %186 = load ptr, ptr %13, align 8, !tbaa !13
  %187 = call i32 @H5AC_unprotect(ptr noundef %184, ptr noundef @H5AC_BT, i64 noundef %185, ptr noundef %186, i32 noundef 0)
  %188 = icmp slt i32 %187, 0
  br i1 %188, label %189, label %205

189:                                              ; preds = %183
  br label %190

190:                                              ; preds = %189
  br label %191

191:                                              ; preds = %190
  br label %192

192:                                              ; preds = %191
  %193 = load i64, ptr @H5E_BTREE_g, align 8, !tbaa !23
  %194 = load i64, ptr @H5E_CANTUNPROTECT_g, align 8, !tbaa !23
  %195 = call i32 (ptr, ptr, i32, i64, i64, ptr, ...) @H5E_printf_stack(ptr noundef @.str.3, ptr noundef @__func__.H5B__iterate_helper, i32 noundef 1102, i64 noundef %193, i64 noundef %194, ptr noundef @.str.34)
  br label %196

196:                                              ; preds = %192
  br label %197

197:                                              ; preds = %196
  store i8 1, ptr %19, align 1, !tbaa !19
  %198 = load i8, ptr %19, align 1, !tbaa !19, !range !21, !noundef !22
  %199 = trunc i8 %198 to i1
  %200 = zext i1 %199 to i8
  store i8 %200, ptr %19, align 1, !tbaa !19
  br label %201

201:                                              ; preds = %197
  br label %202

202:                                              ; preds = %201
  store i32 -1, ptr %18, align 4, !tbaa !17
  br label %203

203:                                              ; preds = %202
  br label %204

204:                                              ; preds = %203
  br label %205

205:                                              ; preds = %204, %183, %180
  br label %206

206:                                              ; preds = %205, %26
  %207 = load i32, ptr %18, align 4, !tbaa !17
  call void @llvm.lifetime.end.p0(i64 1, ptr %19) #6
  call void @llvm.lifetime.end.p0(i64 4, ptr %18) #6
  call void @llvm.lifetime.end.p0(i64 4, ptr %17) #6
  call void @llvm.lifetime.end.p0(i64 32, ptr %16) #6
  call void @llvm.lifetime.end.p0(i64 8, ptr %15) #6
  call void @llvm.lifetime.end.p0(i64 8, ptr %14) #6
  call void @llvm.lifetime.end.p0(i64 8, ptr %13) #6
  ret i32 %207
}