; Function Attrs: nounwind uwtable
define internal fastcc i32 @H5B__iterate_helper(ptr noundef %0, ptr noundef %1, i64 noundef %2, i32 noundef %3, ptr noundef readonly captures(none) %4, ptr noundef %5) unnamed_addr #0 {
  %7 = alloca %struct.H5B_cache_ud_t, align 8
  call void @llvm.lifetime.start.p0(i64 32, ptr nonnull %7) #6
  %8 = load i8, ptr @H5B_init_g, align 1, !tbaa !3, !range !7, !noundef !8
  %9 = trunc nuw i8 %8 to i1
  %10 = load i8, ptr @H5_libterm_g, align 1, !range !7
  %11 = trunc nuw i8 %10 to i1
  %12 = xor i1 %11, true
  %13 = select i1 %9, i1 true, i1 %12
  br i1 %13, label %14, label %.thread, !prof !9

14:                                               ; preds = %6
  %15 = getelementptr inbounds nuw i8, ptr %1, i64 16
  %16 = load ptr, ptr %15, align 8, !tbaa !26
  %17 = tail call ptr %16(ptr noundef %0, ptr noundef %5) #6
  %18 = icmp eq ptr %17, null
  br i1 %18, label %19, label %23

19:                                               ; preds = %14
  %20 = load i64, ptr @H5E_BTREE_g, align 8, !tbaa !29
  %21 = load i64, ptr @H5E_CANTGET_g, align 8, !tbaa !29
  %22 = tail call i32 (ptr, ptr, i32, i64, i64, ptr, ...) @H5E_printf_stack(ptr noundef nonnull @.str.3, ptr noundef nonnull @__func__.H5B__iterate_helper, i32 noundef 1078, i64 noundef %20, i64 noundef %21, ptr noundef nonnull @.str.9) #6
  br label %.thread

23:                                               ; preds = %14
  %24 = load ptr, ptr %17, align 8, !tbaa !32
  store ptr %0, ptr %7, align 8, !tbaa !40
  %25 = getelementptr inbounds nuw i8, ptr %7, i64 8
  store ptr %1, ptr %25, align 8, !tbaa !43
  %26 = getelementptr inbounds nuw i8, ptr %7, i64 24
  store ptr %17, ptr %26, align 8, !tbaa !44
  %27 = getelementptr inbounds nuw i8, ptr %7, i64 16
  store i32 %3, ptr %27, align 8, !tbaa !45
  %28 = call ptr @H5AC_protect(ptr noundef %0, ptr noundef nonnull @H5AC_BT, i64 noundef %2, ptr noundef nonnull %7, i32 noundef 128) #6
  %29 = icmp eq ptr %28, null
  br i1 %29, label %36, label %.preheader

.preheader:                                       ; preds = %23
  %30 = getelementptr inbounds nuw i8, ptr %28, i64 260
  %31 = load i32, ptr %30, align 4, !tbaa !25
  %.not52 = icmp eq i32 %31, 0
  br i1 %.not52, label %._crit_edge, label %.lr.ph

.lr.ph:                                           ; preds = %.preheader
  %32 = getelementptr inbounds nuw i8, ptr %28, i64 256
  %33 = getelementptr inbounds nuw i8, ptr %28, i64 288
  %34 = getelementptr inbounds nuw i8, ptr %28, i64 280
  %35 = getelementptr inbounds nuw i8, ptr %24, i64 64
  br label %40

36:                                               ; preds = %23
  %37 = load i64, ptr @H5E_BTREE_g, align 8, !tbaa !29
  %38 = load i64, ptr @H5E_CANTPROTECT_g, align 8, !tbaa !29
  %39 = call i32 (ptr, ptr, i32, i64, i64, ptr, ...) @H5E_printf_stack(ptr noundef nonnull @.str.3, ptr noundef nonnull @__func__.H5B__iterate_helper, i32 noundef 1088, i64 noundef %37, i64 noundef %38, ptr noundef nonnull @.str.10) #6
  br label %.thread

40:                                               ; preds = %.lr.ph, %67
  %indvars.iv = phi i64 [ 0, %.lr.ph ], [ %indvars.iv.next, %67 ]
  %41 = load i32, ptr %32, align 8, !tbaa !11
  %.not = icmp eq i32 %41, 0
  br i1 %.not, label %48, label %42

42:                                               ; preds = %40
  %43 = load ptr, ptr %33, align 8, !tbaa !38
  %44 = getelementptr inbounds nuw i64, ptr %43, i64 %indvars.iv
  %45 = load i64, ptr %44, align 8, !tbaa !29
  %46 = add i32 %41, -1
  %47 = call fastcc i32 @H5B__iterate_helper(ptr noundef %0, ptr noundef %1, i64 noundef %45, i32 noundef %46, ptr noundef %4, ptr noundef %5)
  br label %62

48:                                               ; preds = %40
  %49 = load ptr, ptr %34, align 8, !tbaa !36
  %50 = load ptr, ptr %35, align 8, !tbaa !47
  %51 = getelementptr inbounds nuw i64, ptr %50, i64 %indvars.iv
  %52 = load i64, ptr %51, align 8, !tbaa !29
  %53 = getelementptr inbounds nuw i8, ptr %49, i64 %52
  %54 = load ptr, ptr %33, align 8, !tbaa !38
  %55 = getelementptr inbounds nuw i64, ptr %54, i64 %indvars.iv
  %56 = load i64, ptr %55, align 8, !tbaa !29
  %57 = getelementptr inbounds nuw i64, ptr %50, i64 %indvars.iv
  %58 = getelementptr inbounds nuw i8, ptr %57, i64 8
  %59 = load i64, ptr %58, align 8, !tbaa !29
  %60 = getelementptr inbounds nuw i8, ptr %49, i64 %59
  %61 = call i32 %4(ptr noundef %0, ptr noundef %53, i64 noundef %56, ptr noundef %60, ptr noundef %5) #6
  br label %62

62:                                               ; preds = %48, %42
  %.3 = phi i32 [ %47, %42 ], [ %61, %48 ]
  %63 = icmp slt i32 %.3, 0
  br i1 %63, label %.thread54, label %67

.thread54:                                        ; preds = %62
  %64 = load i64, ptr @H5E_BTREE_g, align 8, !tbaa !29
  %65 = load i64, ptr @H5E_BADITER_g, align 8, !tbaa !29
  %66 = call i32 (ptr, ptr, i32, i64, i64, ptr, ...) @H5E_printf_stack(ptr noundef nonnull @.str.3, ptr noundef nonnull @__func__.H5B__iterate_helper, i32 noundef 1097, i64 noundef %64, i64 noundef %65, ptr noundef nonnull @.str.24) #6
  br label %._crit_edge

67:                                               ; preds = %62
  %indvars.iv.next = add nuw nsw i64 %indvars.iv, 1
  %68 = load i32, ptr %30, align 4, !tbaa !25
  %69 = zext i32 %68 to i64
  %70 = icmp samesign ult i64 %indvars.iv.next, %69
  %71 = icmp eq i32 %.3, 0
  %72 = and i1 %71, %70
  br i1 %72, label %40, label %._crit_edge, !llvm.loop !68

._crit_edge:                                      ; preds = %67, %.thread54, %.preheader
  %.2.lcssa = phi i32 [ 0, %.preheader ], [ %.3, %.thread54 ], [ %.3, %67 ]
  %73 = call i32 @H5AC_unprotect(ptr noundef %0, ptr noundef nonnull @H5AC_BT, i64 noundef %2, ptr noundef nonnull %28, i32 noundef 0) #6
  %74 = icmp slt i32 %73, 0
  br i1 %74, label %75, label %.thread

75:                                               ; preds = %._crit_edge
  %76 = load i64, ptr @H5E_BTREE_g, align 8, !tbaa !29
  %77 = load i64, ptr @H5E_CANTUNPROTECT_g, align 8, !tbaa !29
  %78 = call i32 (ptr, ptr, i32, i64, i64, ptr, ...) @H5E_printf_stack(ptr noundef nonnull @.str.3, ptr noundef nonnull @__func__.H5B__iterate_helper, i32 noundef 1102, i64 noundef %76, i64 noundef %77, ptr noundef nonnull @.str.34) #6
  br label %.thread

.thread:                                          ; preds = %36, %19, %._crit_edge, %75, %6
  %.0 = phi i32 [ -1, %75 ], [ %.2.lcssa, %._crit_edge ], [ 0, %6 ], [ -1, %19 ], [ -1, %36 ]
  call void @llvm.lifetime.end.p0(i64 32, ptr nonnull %7) #6
  ret i32 %.0
}